; Function Attrs: mustprogress nounwind uwtable
define hidden void @_ZN4llvm13SplitAnalysis7analyzeEPKNS_12LiveIntervalE(ptr noundef nonnull align 8 dereferenceable(701) %0, ptr noundef %1) local_unnamed_addr #0 align 2 {
  %3 = getelementptr inbounds nuw i8, ptr %0, i64 200
  %4 = tail call noundef i64 @_ZNK4llvm15SmallVectorBaseIjE4sizeEv(ptr noundef nonnull align 8 dereferenceable(16) %3) #17
  %5 = getelementptr inbounds nuw i8, ptr %0, i64 208
  store i32 0, ptr %5, align 8
  %6 = getelementptr inbounds nuw i8, ptr %0, i64 280
  %7 = tail call noundef i64 @_ZNK4llvm15SmallVectorBaseIjE4sizeEv(ptr noundef nonnull align 8 dereferenceable(16) %6) #17
  %8 = getelementptr inbounds nuw i8, ptr %0, i64 288
  store i32 0, ptr %8, align 8
  %9 = getelementptr inbounds nuw i8, ptr %0, i64 624
  %10 = getelementptr inbounds nuw i8, ptr %0, i64 688
  store i32 0, ptr %10, align 8
  %11 = tail call noundef i64 @_ZNK4llvm15SmallVectorBaseIjE4sizeEv(ptr noundef nonnull align 8 dereferenceable(68) %9) #17
  %12 = getelementptr inbounds nuw i8, ptr %0, i64 632
  store i32 0, ptr %12, align 8
  %13 = getelementptr inbounds nuw i8, ptr %0, i64 40
  store ptr %1, ptr %13, align 8
  tail call void @_ZN4llvm13SplitAnalysis11analyzeUsesEv(ptr noundef nonnull align 8 dereferenceable(701) %0)
  ret void
}